target datalayout = "e-m:e-p270:32:32-p271:32:32-p272:64:64-i64:64-i128:128-f80:128-n8:16:32:64-S128"
target triple = "x86_64-pc-linux-gnu"

%struct._zend_array = type { %struct._zend_refcounted_h, %union.anon.4, i32, %union.anon.6, i32, i32, i32, i32, i64, ptr }
%struct._zend_refcounted_h = type { i32, %union.anon.3 }
%union.anon.3 = type { i32 }
%union.anon.4 = type { i32 }
%union.anon.6 = type { ptr }
%struct._phpdbg_watchpoint_t = type { %union.anon.27, i64, i32, ptr, %struct._zend_array, ptr, %union.anon.28 }
%union.anon.27 = type { ptr }
%union.anon.28 = type { %struct._zend_array }

; Function Attrs: nounwind uwtable
define hidden void @phpdbg_set_addr_watchpoint(ptr noundef %0, i64 noundef %1, ptr noundef %2) #0 {
  %4 = alloca ptr, align 8
  %5 = alloca i64, align 8
  %6 = alloca ptr, align 8
  store ptr %0, ptr %4, align 8
  store i64 %1, ptr %5, align 8
  store ptr %2, ptr %6, align 8
  %7 = load ptr, ptr %4, align 8
  %8 = load ptr, ptr %6, align 8
  %9 = getelementptr inbounds %struct._phpdbg_watchpoint_t, ptr %8, i32 0, i32 0
  store ptr %7, ptr %9, align 8
  %10 = load i64, ptr %5, align 8
  %11 = load ptr, ptr %6, align 8
  %12 = getelementptr inbounds %struct._phpdbg_watchpoint_t, ptr %11, i32 0, i32 1
  store i64 %10, ptr %12, align 8
  %13 = load ptr, ptr %6, align 8
  %14 = getelementptr inbounds %struct._phpdbg_watchpoint_t, ptr %13, i32 0, i32 3
  store ptr null, ptr %14, align 8
  %15 = load ptr, ptr %6, align 8
  %16 = getelementptr inbounds %struct._phpdbg_watchpoint_t, ptr %15, i32 0, i32 5
  store ptr null, ptr %16, align 8
  %17 = load ptr, ptr %6, align 8
  %18 = getelementptr inbounds %struct._phpdbg_watchpoint_t, ptr %17, i32 0, i32 4
  call void @_zend_hash_init(ptr noundef %18, i32 noundef 8, ptr noundef null, i1 noundef zeroext false)
  ret void
}

; Function Attrs: nounwind uwtable
define hidden void @phpdbg_set_bucket_watchpoint(ptr noundef %0, ptr noundef %1) #0 {
  %3 = alloca ptr, align 8
  %4 = alloca ptr, align 8
  store ptr %0, ptr %3, align 8
  store ptr %1, ptr %4, align 8
  %5 = load ptr, ptr %3, align 8
  %6 = load ptr, ptr %4, align 8
  call void @phpdbg_set_addr_watchpoint(ptr noundef %5, i64 noundef 32, ptr noundef %6)
  %7 = load ptr, ptr %4, align 8
  %8 = getelementptr inbounds %struct._phpdbg_watchpoint_t, ptr %7, i32 0, i32 2
  store i32 5, ptr %8, align 8
  ret void
}

; Function Attrs: nounwind uwtable
define hidden ptr @phpdbg_add_bucket_watch_element(ptr noundef %0, ptr noundef %1) #0 {
  %3 = alloca ptr, align 8
  %4 = alloca ptr, align 8
  %5 = alloca %struct._phpdbg_watchpoint_t, align 8
  store ptr %0, ptr %3, align 8
  store ptr %1, ptr %4, align 8
  %6 = load ptr, ptr %3, align 8
  call void @phpdbg_set_bucket_watchpoint(ptr noundef %6, ptr noundef %5)
  %7 = load ptr, ptr %4, align 8
  %8 = call ptr @phpdbg_add_watch_element(ptr noundef %5, ptr noundef %7)
  store ptr %8, ptr %4, align 8
  %9 = load ptr, ptr %4, align 8
  call void @phpdbg_watch_parent_ht(ptr noundef %9)
  %10 = load ptr, ptr %4, align 8
  ret ptr %10
}