; Function Attrs: nounwind uwtable
define hidden noundef ptr @phpdbg_add_bucket_watch_element(ptr noundef %0, ptr noundef %1) local_unnamed_addr #0 {
  %3 = alloca %struct._phpdbg_watchpoint_t, align 8
  store ptr %0, ptr %3, align 8
  %4 = getelementptr inbounds i8, ptr %3, i64 8
  store i64 32, ptr %4, align 8
  %5 = getelementptr inbounds i8, ptr %3, i64 24
  store ptr null, ptr %5, align 8
  %6 = getelementptr inbounds i8, ptr %3, i64 88
  store ptr null, ptr %6, align 8
  %7 = getelementptr inbounds i8, ptr %3, i64 32
  call void @_zend_hash_init(ptr noundef nonnull %7, i32 noundef 8, ptr noundef null, i1 noundef zeroext false) #17
  %8 = getelementptr inbounds i8, ptr %3, i64 16
  store i32 5, ptr %8, align 8
  %9 = call ptr @phpdbg_add_watch_element(ptr noundef nonnull %3, ptr noundef %1)
  call void @phpdbg_watch_parent_ht(ptr noundef %9)
  ret ptr %9
}